target datalayout = "e-m:e-p270:32:32-p271:32:32-p272:64:64-i64:64-i128:128-f80:128-n8:16:32:64-S128"
target triple = "x86_64-pc-linux-gnu"

%"class.icu_77::UVector64" = type { %"class.icu_77::UObject", i32, i32, i32, ptr }
%"class.icu_77::UObject" = type { ptr }

; Function Attrs: mustprogress nounwind uwtable
define void @_ZN6icu_779UVector6412setElementAtEli(ptr noundef nonnull align 8 dereferenceable(32) %0, i64 noundef %1, i32 noundef %2) #0 align 2 {
  %4 = alloca ptr, align 8
  %5 = alloca i64, align 8
  %6 = alloca i32, align 4
  store ptr %0, ptr %4, align 8, !tbaa !3
  store i64 %1, ptr %5, align 8, !tbaa !24
  store i32 %2, ptr %6, align 4, !tbaa !21
  %7 = load ptr, ptr %4, align 8
  %8 = load i32, ptr %6, align 4, !tbaa !21
  %9 = icmp sle i32 0, %8
  br i1 %9, label %10, label %22

10:                                               ; preds = %3
  %11 = load i32, ptr %6, align 4, !tbaa !21
  %12 = getelementptr inbounds nuw %"class.icu_77::UVector64", ptr %7, i32 0, i32 1
  %13 = load i32, ptr %12, align 8, !tbaa !11
  %14 = icmp slt i32 %11, %13
  br i1 %14, label %15, label %22

15:                                               ; preds = %10
  %16 = load i64, ptr %5, align 8, !tbaa !24
  %17 = getelementptr inbounds nuw %"class.icu_77::UVector64", ptr %7, i32 0, i32 4
  %18 = load ptr, ptr %17, align 8, !tbaa !18
  %19 = load i32, ptr %6, align 4, !tbaa !21
  %20 = sext i32 %19 to i64
  %21 = getelementptr inbounds i64, ptr %18, i64 %20
  store i64 %16, ptr %21, align 8, !tbaa !24
  br label %22

22:                                               ; preds = %15, %10, %3
  ret void
}