; Function Attrs: mustprogress nofree norecurse nosync nounwind willreturn memory(write, argmem: readwrite, inaccessiblemem: none) uwtable
define void @_ZN6icu_779UVector6412setElementAtEli(ptr noundef nonnull readonly align 8 captures(none) dereferenceable(32) %0, i64 noundef %1, i32 noundef %2) local_unnamed_addr #9 align 2 {
  %4 = icmp sgt i32 %2, -1
  %5 = getelementptr inbounds nuw i8, ptr %0, i64 8
  %6 = load i32, ptr %5, align 8
  %7 = icmp slt i32 %2, %6
  %or.cond = select i1 %4, i1 %7, i1 false
  br i1 %or.cond, label %8, label %13

8:                                                ; preds = %3
  %9 = getelementptr inbounds nuw i8, ptr %0, i64 24
  %10 = load ptr, ptr %9, align 8, !tbaa !15
  %11 = zext nneg i32 %2 to i64
  %12 = getelementptr inbounds nuw i64, ptr %10, i64 %11
  store i64 %1, ptr %12, align 8, !tbaa !18
  br label %13

13:                                               ; preds = %8, %3
  ret void
}